; Function Attrs: mustprogress uwtable
define dso_local noundef zeroext i1 @_ZN8tinygltf14WriteWholeFileEPNSt7__cxx1112basic_stringIcSt11char_traitsIcESaIcEEERKS5_RKSt6vectorIhSaIhEEPv(ptr noundef %0, ptr noundef nonnull align 8 dereferenceable(32) %1, ptr nocapture noundef nonnull readonly align 8 dereferenceable(24) %2, ptr nocapture readnone %3) #3 personality ptr @__gxx_personality_v0 {
  %5 = alloca %"class.std::basic_ofstream", align 8
  %6 = alloca %"class.std::__cxx11::basic_string", align 8
  %7 = alloca %"class.std::__cxx11::basic_string", align 8
  %8 = alloca %"class.std::__cxx11::basic_string", align 8
  %9 = alloca %"class.std::__cxx11::basic_string", align 8
  %10 = tail call noundef ptr @_ZNKSt7__cxx1112basic_stringIcSt11char_traitsIcESaIcEE5c_strEv(ptr noundef nonnull align 8 dereferenceable(32) %1) #30
  call void @_ZNSt14basic_ofstreamIcSt11char_traitsIcEEC1EPKcSt13_Ios_Openmode(ptr noundef nonnull align 8 dereferenceable(248) %5, ptr noundef %10, i32 noundef 4)
  %11 = load ptr, ptr %5, align 8
  %12 = getelementptr i8, ptr %11, i64 -24
  %13 = load i64, ptr %12, align 8
  %14 = getelementptr inbounds i8, ptr %5, i64 %13
  %15 = invoke noundef zeroext i1 @_ZNKSt9basic_iosIcSt11char_traitsIcEEntEv(ptr noundef nonnull align 8 dereferenceable(264) %14)
          to label %16 unwind label %23

16:                                               ; preds = %4
  br i1 %15, label %17, label %30

17:                                               ; preds = %16
  %.not18 = icmp eq ptr %0, null
  br i1 %.not18, label %58, label %18

18:                                               ; preds = %17
  invoke void @_ZStplIcSt11char_traitsIcESaIcEENSt7__cxx1112basic_stringIT_T0_T1_EEPKS5_RKS8_(ptr dead_on_unwind nonnull writable sret(%"class.std::__cxx11::basic_string") align 8 %7, ptr noundef nonnull @.str.9, ptr noundef nonnull align 8 dereferenceable(32) %1)
          to label %19 unwind label %23

19:                                               ; preds = %18
  %20 = invoke noundef nonnull align 8 dereferenceable(32) ptr @_ZNSt7__cxx1112basic_stringIcSt11char_traitsIcESaIcEE6appendEPKc(ptr noundef nonnull align 8 dereferenceable(32) %7, ptr noundef nonnull @.str.5)
          to label %21 unwind label %25

21:                                               ; preds = %19
  call void @_ZNSt7__cxx1112basic_stringIcSt11char_traitsIcESaIcEEC1EOS4_(ptr noundef nonnull align 8 dereferenceable(32) %6, ptr noundef nonnull align 8 dereferenceable(32) %20) #30
  %22 = invoke noundef nonnull align 8 dereferenceable(32) ptr @_ZNSt7__cxx1112basic_stringIcSt11char_traitsIcESaIcEEpLERKS4_(ptr noundef nonnull align 8 dereferenceable(32) %0, ptr noundef nonnull align 8 dereferenceable(32) %6)
          to label %.sink.split unwind label %27

23:                                               ; preds = %37, %57, %47, %39, %_ZNKSt6vectorIhSaIhEE2atEm.exit, %18, %4
  %24 = landingpad { ptr, i32 }
          cleanup
  br label %59

25:                                               ; preds = %19
  %26 = landingpad { ptr, i32 }
          cleanup
  br label %29

27:                                               ; preds = %21
  %28 = landingpad { ptr, i32 }
          cleanup
  call void @_ZNSt7__cxx1112basic_stringIcSt11char_traitsIcESaIcEED1Ev(ptr noundef nonnull align 8 dereferenceable(32) %6) #30
  br label %29

29:                                               ; preds = %27, %25
  %.pn19 = phi { ptr, i32 } [ %28, %27 ], [ %26, %25 ]
  call void @_ZNSt7__cxx1112basic_stringIcSt11char_traitsIcESaIcEED1Ev(ptr noundef nonnull align 8 dereferenceable(32) %7) #30
  br label %59

30:                                               ; preds = %16
  %31 = getelementptr inbounds i8, ptr %2, i64 8
  %32 = load ptr, ptr %31, align 8
  %33 = load ptr, ptr %2, align 8
  %34 = ptrtoint ptr %32 to i64
  %35 = ptrtoint ptr %33 to i64
  %36 = sub i64 %34, %35
  %.not.i.i.not = icmp eq ptr %32, %33
  br i1 %.not.i.i.not, label %37, label %_ZNKSt6vectorIhSaIhEE2atEm.exit

37:                                               ; preds = %30
  invoke void (ptr, ...) @_ZSt24__throw_out_of_range_fmtPKcz(ptr noundef nonnull @.str.302, i64 noundef 0, i64 noundef %36) #33
          to label %.noexc unwind label %23

.noexc:                                           ; preds = %37
  unreachable

_ZNKSt6vectorIhSaIhEE2atEm.exit:                  ; preds = %30
  %38 = invoke noundef nonnull align 8 dereferenceable(8) ptr @_ZNSo5writeEPKcl(ptr noundef nonnull align 8 dereferenceable(8) %5, ptr noundef nonnull %33, i64 noundef %36)
          to label %39 unwind label %23

39:                                               ; preds = %_ZNKSt6vectorIhSaIhEE2atEm.exit
  %40 = load ptr, ptr %5, align 8
  %41 = getelementptr i8, ptr %40, i64 -24
  %42 = load i64, ptr %41, align 8
  %43 = getelementptr inbounds i8, ptr %5, i64 %42
  %44 = invoke noundef zeroext i1 @_ZNKSt9basic_iosIcSt11char_traitsIcEEntEv(ptr noundef nonnull align 8 dereferenceable(264) %43)
          to label %45 unwind label %23

45:                                               ; preds = %39
  br i1 %44, label %46, label %57

46:                                               ; preds = %45
  %.not = icmp eq ptr %0, null
  br i1 %.not, label %58, label %47

47:                                               ; preds = %46
  invoke void @_ZStplIcSt11char_traitsIcESaIcEENSt7__cxx1112basic_stringIT_T0_T1_EEPKS5_RKS8_(ptr dead_on_unwind nonnull writable sret(%"class.std::__cxx11::basic_string") align 8 %9, ptr noundef nonnull @.str.10, ptr noundef nonnull align 8 dereferenceable(32) %1)
          to label %48 unwind label %23

48:                                               ; preds = %47
  %49 = invoke noundef nonnull align 8 dereferenceable(32) ptr @_ZNSt7__cxx1112basic_stringIcSt11char_traitsIcESaIcEE6appendEPKc(ptr noundef nonnull align 8 dereferenceable(32) %9, ptr noundef nonnull @.str.5)
          to label %50 unwind label %52

50:                                               ; preds = %48
  call void @_ZNSt7__cxx1112basic_stringIcSt11char_traitsIcESaIcEEC1EOS4_(ptr noundef nonnull align 8 dereferenceable(32) %8, ptr noundef nonnull align 8 dereferenceable(32) %49) #30
  %51 = invoke noundef nonnull align 8 dereferenceable(32) ptr @_ZNSt7__cxx1112basic_stringIcSt11char_traitsIcESaIcEEpLERKS4_(ptr noundef nonnull align 8 dereferenceable(32) %0, ptr noundef nonnull align 8 dereferenceable(32) %8)
          to label %.sink.split unwind label %54

52:                                               ; preds = %48
  %53 = landingpad { ptr, i32 }
          cleanup
  br label %56

54:                                               ; preds = %50
  %55 = landingpad { ptr, i32 }
          cleanup
  call void @_ZNSt7__cxx1112basic_stringIcSt11char_traitsIcESaIcEED1Ev(ptr noundef nonnull align 8 dereferenceable(32) %8) #30
  br label %56

56:                                               ; preds = %54, %52
  %.pn = phi { ptr, i32 } [ %55, %54 ], [ %53, %52 ]
  call void @_ZNSt7__cxx1112basic_stringIcSt11char_traitsIcESaIcEED1Ev(ptr noundef nonnull align 8 dereferenceable(32) %9) #30
  br label %59

57:                                               ; preds = %45
  invoke void @_ZNSt14basic_ofstreamIcSt11char_traitsIcEE5closeEv(ptr noundef nonnull align 8 dereferenceable(248) %5)
          to label %58 unwind label %23

.sink.split:                                      ; preds = %50, %21
  %.sink24 = phi ptr [ %6, %21 ], [ %8, %50 ]
  %.sink = phi ptr [ %7, %21 ], [ %9, %50 ]
  call void @_ZNSt7__cxx1112basic_stringIcSt11char_traitsIcESaIcEED1Ev(ptr noundef nonnull align 8 dereferenceable(32) %.sink24) #30
  call void @_ZNSt7__cxx1112basic_stringIcSt11char_traitsIcESaIcEED1Ev(ptr noundef nonnull align 8 dereferenceable(32) %.sink) #30
  br label %58

58:                                               ; preds = %.sink.split, %57, %46, %17
  %.014 = phi i1 [ false, %17 ], [ false, %46 ], [ true, %57 ], [ false, %.sink.split ]
  call void @_ZNSt14basic_ofstreamIcSt11char_traitsIcEED1Ev(ptr noundef nonnull align 8 dereferenceable(248) %5) #30
  ret i1 %.014

59:                                               ; preds = %56, %29, %23
  %.pn19.pn = phi { ptr, i32 } [ %.pn19, %29 ], [ %24, %23 ], [ %.pn, %56 ]
  call void @_ZNSt14basic_ofstreamIcSt11char_traitsIcEED1Ev(ptr noundef nonnull align 8 dereferenceable(248) %5) #30
  resume { ptr, i32 } %.pn19.pn
}